(dp0
S'failed'
p1
(lp2
S'2'
p3
aS'17'
p4
aS'22'
p5
aS'24'
p6
aS'25'
p7
aS'26'
p8
aS'28'
p9
asS'source_names'
p10
(lp11
S'11'
p12
aS'flask'
p13
aS'pixelverifyserver'
p14
aS'mainconcept_server'
p15
asS'ids'
p16
(dp17
I1
(S'/Users/jesse/Documents/P4/tools/WebTestRunner/11'
p18
NNtp19
sI2
(S'/Library/Python/2.7/site-packages/flask/testing.py'
p20
S'flask.testing'
p21
S'make_test_environ_builder'
p22
tp23
sI3
(S'/Library/Python/2.7/site-packages/flask/testsuite/__init__.py'
p24
S'flask.testsuite'
p25
S'find_all_tests'
p26
tp27
sI4
(S'/Library/Python/2.7/site-packages/flask/testsuite/test_apps/flask_broken'
p28
S'flask_broken'
p29
Ntp30
sI5
(S'/Library/Python/2.7/site-packages/flask/testsuite/testing.py'
p31
S'flask.testsuite.testing'
p32
S'TestToolsTestCase.test_environ_defaults'
p33
tp34
sI6
(S'/Library/Python/2.7/site-packages/flask/testsuite/testing.py'
p35
g32
S'TestToolsTestCase.test_environ_defaults_from_config'
p36
tp37
sI7
(S'/Library/Python/2.7/site-packages/flask/testsuite/testing.py'
p38
g32
S'TestToolsTestCase.test_reuse_client'
p39
tp40
sI8
(S'/Library/Python/2.7/site-packages/flask/testsuite/testing.py'
p41
g32
S'TestToolsTestCase.test_session_transaction_needs_cookies'
p42
tp43
sI9
(S'/Library/Python/2.7/site-packages/flask/testsuite/testing.py'
p44
g32
S'TestToolsTestCase.test_session_transactions'
p45
tp46
sI10
(S'/Library/Python/2.7/site-packages/flask/testsuite/testing.py'
p47
g32
S'TestToolsTestCase.test_session_transactions_keep_context'
p48
tp49
sI11
(S'/Library/Python/2.7/site-packages/flask/testsuite/testing.py'
p50
g32
S'TestToolsTestCase.test_session_transactions_no_null_sessions'
p51
tp52
sI12
(S'/Library/Python/2.7/site-packages/flask/testsuite/testing.py'
p53
g32
S'TestToolsTestCase.test_test_client_calls_teardown_handlers'
p54
tp55
sI13
(S'/Library/Python/2.7/site-packages/flask/testsuite/testing.py'
p56
g32
S'TestToolsTestCase.test_test_client_context_binding'
p57
tp58
sI14
(S'/Users/jesse/Documents/P4/tools/PixelVerifyServer/pixelverifyserver/test.py'
p59
S'pixelverifyserver.test'
p60
S'FlaskTests.test_add_bug'
p61
tp62
sI15
(S'/Users/jesse/Documents/P4/tools/PixelVerifyServer/pixelverifyserver/test.py'
p63
g60
S'FlaskTests.test_get_bug_for_test'
p64
tp65
sI16
(S'/Users/jesse/Documents/P4/tools/PixelVerifyServer/pixelverifyserver/test.py'
p66
g60
S'FlaskTests.test_get_summary'
p67
tp68
sI17
(S'/Users/jesse/Documents/P4/tools/PixelVerifyServer/pixelverifyserver/test.py'
p69
g60
S'FlaskTests.test_save'
p70
tp71
sI18
(S'/Users/jesse/Documents/P4/tools/PixelVerifyServer/pixelverifyserver/test.py'
p72
g60
S'FlaskTests.test_status'
p73
tp74
sI19
(S'/Users/jesse/Documents/P4/tools/MainConcept/mainconcept_server/src/mainconcept_server/test.py'
p75
S'mainconcept_server.test'
p76
S'TestClientAPIs.test_get_baseline_mediainfo'
p77
tp78
sI20
(S'/Users/jesse/Documents/P4/tools/MainConcept/mainconcept_server/src/mainconcept_server/test.py'
p79
g76
S'TestClientAPIs.test_get_images'
p80
tp81
sI21
(S'/Users/jesse/Documents/P4/tools/MainConcept/mainconcept_server/src/mainconcept_server/test.py'
p82
g76
S'TestClientAPIs.test_get_latest_drop_data'
p83
tp84
sI22
(S'/Users/jesse/Documents/P4/tools/MainConcept/mainconcept_server/src/mainconcept_server/test.py'
p85
g76
S'TestClientAPIs.test_get_pixel_verify_baseline_for_frame'
p86
tp87
sI23
(S'/Users/jesse/Documents/P4/tools/MainConcept/mainconcept_server/src/mainconcept_server/test.py'
p88
g76
S'TestClientAPIs.test_set_expected_number_of_tests'
p89
tp90
sI24
(S'/Users/jesse/Documents/P4/tools/MainConcept/mainconcept_server/src/mainconcept_server/test.py'
p91
g76
S'TestClientAPIs.test_set_mediainfo_baseline'
p92
tp93
sI25
(S'/Users/jesse/Documents/P4/tools/MainConcept/mainconcept_server/src/mainconcept_server/test.py'
p94
g76
S'TestClientAPIs.test_set_pixel_verify_baseline_for_frame'
p95
tp96
sI26
(S'/Users/jesse/Documents/P4/tools/MainConcept/mainconcept_server/src/mainconcept_server/test.py'
p97
g76
S'TestClientAPIs.test_set_pixel_verify_baselines'
p98
tp99
sI27
(S'/Users/jesse/Documents/P4/tools/MainConcept/mainconcept_server/src/mainconcept_server/test.py'
p100
g76
S'TestWebAPIs.test_history'
p101
tp102
sI28
(S'/Users/jesse/Documents/P4/tools/MainConcept/mainconcept_server/src/mainconcept_server/test.py'
p103
g76
S'TestWebAPIs.test_progress'
p104
tp105
sI29
(S'/Users/jesse/Documents/P4/tools/MainConcept/mainconcept_server/src/mainconcept_server/test.py'
p106
g76
S'TestWebAPIs.test_results'
p107
tp108
sI30
(S'/Users/jesse/Documents/P4/tools/MainConcept/mainconcept_server/src/mainconcept_server/test.py'
p109
g76
S'TestWebAPIs.test_start'
p110
tp111
sI31
(S'/Users/jesse/Documents/P4/tools/MainConcept/mainconcept_server/src/mainconcept_server/test.py'
p112
g76
S'TestWebAPIs.test_validate'
p113
tp114
ss.